target datalayout = "e-m:e-p270:32:32-p271:32:32-p272:64:64-i64:64-i128:128-f80:128-n8:16:32:64-S128"
target triple = "x86_64-pc-linux-gnu"

%"class.zmq::xpub_t" = type { %"class.zmq::socket_base_t.base", %"class.zmq::generic_mtrie_t", %"class.zmq::generic_mtrie_t", %"class.zmq::dist_t", i8, i8, i8, i8, i8, i8, i8, i8, i8, ptr, %"class.std::deque", %"class.zmq::msg_t", %"class.std::deque.53", %"class.std::deque.59", %"class.std::deque.65" }
%"class.zmq::socket_base_t.base" = type <{ %"class.zmq::own_t.base", [4 x i8], %"class.zmq::array_item_t.base", [4 x i8], %"struct.zmq::i_poll_events", %"struct.zmq::i_pipe_events", %"class.zmq::mutex_t", %"class.std::multimap", %"class.zmq::socket_base_t::inprocs_t", i32, i8, i8, [2 x i8], ptr, %"class.zmq::array_t", ptr, ptr, i64, i32, i8, [3 x i8], %"class.zmq::clock_t", ptr, i64, %"class.std::__cxx11::basic_string", i8, [7 x i8], ptr, %"class.zmq::mutex_t", i8 }>
%"class.zmq::own_t.base" = type <{ %"class.zmq::object_t.base", [4 x i8], %"struct.zmq::options_t", i8, [7 x i8], %"class.zmq::atomic_counter_t", i64, ptr, %"class.std::set.24", i32 }>
%"class.zmq::object_t.base" = type <{ ptr, ptr, i32 }>
%"struct.zmq::options_t" = type { i32, i32, i64, i8, [256 x i8], i32, i32, i32, i32, i32, i32, i32, i32, i8, %"struct.zmq::atomic_value_t", i32, i32, i32, i32, i32, i32, i64, i32, i32, i8, i32, i8, i8, i8, i8, i8, %"class.std::__cxx11::basic_string", %"class.std::__cxx11::basic_string", %"class.std::__cxx11::basic_string", i32, i32, i32, i32, %"class.std::vector", %"class.std::set", %"class.std::set", %"class.std::set.6", i32, i32, %"class.std::__cxx11::basic_string", %"class.std::__cxx11::basic_string", %"class.std::__cxx11::basic_string", [32 x i8], [32 x i8], [32 x i8], %"class.std::__cxx11::basic_string", %"class.std::__cxx11::basic_string", i32, i32, i8, i32, i8, i32, i8, i16, i32, i32, i32, %"class.std::__cxx11::basic_string", i8, i8, i8, i32, i32, i8, i32, %"class.std::map", i32, %"class.std::__cxx11::basic_string", %"class.std::__cxx11::basic_string", %"class.std::__cxx11::basic_string", %"class.std::__cxx11::basic_string", i8, %"class.std::vector.17", i8, %"class.std::vector.17", i8, %"class.std::vector.17", i8, i32, i8, i32, i32, i32, i32, i32, i8, i32 }
%"struct.zmq::atomic_value_t" = type { %"struct.std::atomic" }
%"struct.std::atomic" = type { %"struct.std::__atomic_base" }
%"struct.std::__atomic_base" = type { i32 }
%"class.std::vector" = type { %"struct.std::_Vector_base" }
%"struct.std::_Vector_base" = type { %"struct.std::_Vector_base<zmq::tcp_address_mask_t, std::allocator<zmq::tcp_address_mask_t>>::_Vector_impl" }
%"struct.std::_Vector_base<zmq::tcp_address_mask_t, std::allocator<zmq::tcp_address_mask_t>>::_Vector_impl" = type { %"struct.std::_Vector_base<zmq::tcp_address_mask_t, std::allocator<zmq::tcp_address_mask_t>>::_Vector_impl_data" }
%"struct.std::_Vector_base<zmq::tcp_address_mask_t, std::allocator<zmq::tcp_address_mask_t>>::_Vector_impl_data" = type { ptr, ptr, ptr }
%"class.std::set" = type { %"class.std::_Rb_tree" }
%"class.std::_Rb_tree" = type { %"struct.std::_Rb_tree<unsigned int, unsigned int, std::_Identity<unsigned int>, std::less<unsigned int>>::_Rb_tree_impl" }
%"struct.std::_Rb_tree<unsigned int, unsigned int, std::_Identity<unsigned int>, std::less<unsigned int>>::_Rb_tree_impl" = type { [8 x i8], %"struct.std::_Rb_tree_header" }
%"struct.std::_Rb_tree_header" = type { %"struct.std::_Rb_tree_node_base", i64 }
%"struct.std::_Rb_tree_node_base" = type { i32, ptr, ptr, ptr }
%"class.std::set.6" = type { %"class.std::_Rb_tree.7" }
%"class.std::_Rb_tree.7" = type { %"struct.std::_Rb_tree<int, int, std::_Identity<int>, std::less<int>>::_Rb_tree_impl" }
%"struct.std::_Rb_tree<int, int, std::_Identity<int>, std::less<int>>::_Rb_tree_impl" = type { [8 x i8], %"struct.std::_Rb_tree_header" }
%"class.std::map" = type { %"class.std::_Rb_tree.12" }
%"class.std::_Rb_tree.12" = type { %"struct.std::_Rb_tree<std::__cxx11::basic_string<char>, std::pair<const std::__cxx11::basic_string<char>, std::__cxx11::basic_string<char>>, std::_Select1st<std::pair<const std::__cxx11::basic_string<char>, std::__cxx11::basic_string<char>>>, std::less<std::__cxx11::basic_string<char>>>::_Rb_tree_impl" }
%"struct.std::_Rb_tree<std::__cxx11::basic_string<char>, std::pair<const std::__cxx11::basic_string<char>, std::__cxx11::basic_string<char>>, std::_Select1st<std::pair<const std::__cxx11::basic_string<char>, std::__cxx11::basic_string<char>>>, std::less<std::__cxx11::basic_string<char>>>::_Rb_tree_impl" = type { [8 x i8], %"struct.std::_Rb_tree_header" }
%"class.std::vector.17" = type { %"struct.std::_Vector_base.18" }
%"struct.std::_Vector_base.18" = type { %"struct.std::_Vector_base<unsigned char, std::allocator<unsigned char>>::_Vector_impl" }
%"struct.std::_Vector_base<unsigned char, std::allocator<unsigned char>>::_Vector_impl" = type { %"struct.std::_Vector_base<unsigned char, std::allocator<unsigned char>>::_Vector_impl_data" }
%"struct.std::_Vector_base<unsigned char, std::allocator<unsigned char>>::_Vector_impl_data" = type { ptr, ptr, ptr }
%"class.zmq::atomic_counter_t" = type { %"struct.std::atomic.22", [4 x i8] }
%"struct.std::atomic.22" = type { %"struct.std::__atomic_base.23" }
%"struct.std::__atomic_base.23" = type { i32 }
%"class.std::set.24" = type { %"class.std::_Rb_tree.25" }
%"class.std::_Rb_tree.25" = type { %"struct.std::_Rb_tree<zmq::own_t *, zmq::own_t *, std::_Identity<zmq::own_t *>, std::less<zmq::own_t *>>::_Rb_tree_impl" }
%"struct.std::_Rb_tree<zmq::own_t *, zmq::own_t *, std::_Identity<zmq::own_t *>, std::less<zmq::own_t *>>::_Rb_tree_impl" = type { [8 x i8], %"struct.std::_Rb_tree_header" }
%"class.zmq::array_item_t.base" = type <{ ptr, i32 }>
%"struct.zmq::i_poll_events" = type { ptr }
%"struct.zmq::i_pipe_events" = type { ptr }
%"class.std::multimap" = type { %"class.std::_Rb_tree.30" }
%"class.std::_Rb_tree.30" = type { %"struct.std::_Rb_tree<std::__cxx11::basic_string<char>, std::pair<const std::__cxx11::basic_string<char>, std::pair<zmq::own_t *, zmq::pipe_t *>>, std::_Select1st<std::pair<const std::__cxx11::basic_string<char>, std::pair<zmq::own_t *, zmq::pipe_t *>>>, std::less<std::__cxx11::basic_string<char>>>::_Rb_tree_impl" }
%"struct.std::_Rb_tree<std::__cxx11::basic_string<char>, std::pair<const std::__cxx11::basic_string<char>, std::pair<zmq::own_t *, zmq::pipe_t *>>, std::_Select1st<std::pair<const std::__cxx11::basic_string<char>, std::pair<zmq::own_t *, zmq::pipe_t *>>>, std::less<std::__cxx11::basic_string<char>>>::_Rb_tree_impl" = type { [8 x i8], %"struct.std::_Rb_tree_header" }
%"class.zmq::socket_base_t::inprocs_t" = type { %"class.std::multimap.34" }
%"class.std::multimap.34" = type { %"class.std::_Rb_tree.35" }
%"class.std::_Rb_tree.35" = type { %"struct.std::_Rb_tree<std::__cxx11::basic_string<char>, std::pair<const std::__cxx11::basic_string<char>, zmq::pipe_t *>, std::_Select1st<std::pair<const std::__cxx11::basic_string<char>, zmq::pipe_t *>>, std::less<std::__cxx11::basic_string<char>>>::_Rb_tree_impl" }
%"struct.std::_Rb_tree<std::__cxx11::basic_string<char>, std::pair<const std::__cxx11::basic_string<char>, zmq::pipe_t *>, std::_Select1st<std::pair<const std::__cxx11::basic_string<char>, zmq::pipe_t *>>, std::less<std::__cxx11::basic_string<char>>>::_Rb_tree_impl" = type { [8 x i8], %"struct.std::_Rb_tree_header" }
%"class.zmq::array_t" = type { %"class.std::vector.39" }
%"class.std::vector.39" = type { %"struct.std::_Vector_base.40" }
%"struct.std::_Vector_base.40" = type { %"struct.std::_Vector_base<zmq::pipe_t *, std::allocator<zmq::pipe_t *>>::_Vector_impl" }
%"struct.std::_Vector_base<zmq::pipe_t *, std::allocator<zmq::pipe_t *>>::_Vector_impl" = type { %"struct.std::_Vector_base<zmq::pipe_t *, std::allocator<zmq::pipe_t *>>::_Vector_impl_data" }
%"struct.std::_Vector_base<zmq::pipe_t *, std::allocator<zmq::pipe_t *>>::_Vector_impl_data" = type { ptr, ptr, ptr }
%"class.zmq::clock_t" = type { i64, i64 }
%"class.std::__cxx11::basic_string" = type { %"struct.std::__cxx11::basic_string<char>::_Alloc_hider", i64, %union.anon }
%"struct.std::__cxx11::basic_string<char>::_Alloc_hider" = type { ptr }
%union.anon = type { i64, [8 x i8] }
%"class.zmq::mutex_t" = type <{ %union.pthread_mutex_t, %union.pthread_mutexattr_t, [4 x i8] }>
%union.pthread_mutex_t = type { %struct.__pthread_mutex_s }
%struct.__pthread_mutex_s = type { i32, i32, i32, i32, i32, i16, i16, %struct.__pthread_internal_list }
%struct.__pthread_internal_list = type { ptr, ptr }
%union.pthread_mutexattr_t = type { i32 }
%"class.zmq::generic_mtrie_t" = type { ptr, %"class.zmq::atomic_counter_t", i8, i16, i16, %"union.zmq::generic_mtrie_t<zmq::pipe_t>::_next_t" }
%"union.zmq::generic_mtrie_t<zmq::pipe_t>::_next_t" = type { ptr }
%"class.zmq::dist_t" = type <{ %"class.zmq::array_t.44", i64, i64, i64, i8, [7 x i8] }>
%"class.zmq::array_t.44" = type { %"class.std::vector.39" }
%"class.std::deque" = type { %"class.std::_Deque_base" }
%"class.std::_Deque_base" = type { %"struct.std::_Deque_base<zmq::pipe_t *, std::allocator<zmq::pipe_t *>>::_Deque_impl" }
%"struct.std::_Deque_base<zmq::pipe_t *, std::allocator<zmq::pipe_t *>>::_Deque_impl" = type { %"struct.std::_Deque_base<zmq::pipe_t *, std::allocator<zmq::pipe_t *>>::_Deque_impl_data" }
%"struct.std::_Deque_base<zmq::pipe_t *, std::allocator<zmq::pipe_t *>>::_Deque_impl_data" = type { ptr, i64, %"struct.std::_Deque_iterator", %"struct.std::_Deque_iterator" }
%"struct.std::_Deque_iterator" = type { ptr, ptr, ptr, ptr }
%"class.zmq::msg_t" = type { %union.anon.45 }
%union.anon.45 = type { %struct.anon }
%struct.anon = type { ptr, [34 x i8], i8, i8, i32, %"union.zmq::msg_t::group_t" }
%"union.zmq::msg_t::group_t" = type { %struct.anon.47 }
%struct.anon.47 = type { i8, ptr }
%"class.std::deque.53" = type { %"class.std::_Deque_base.54" }
%"class.std::_Deque_base.54" = type { %"struct.std::_Deque_base<zmq::blob_t, std::allocator<zmq::blob_t>>::_Deque_impl" }
%"struct.std::_Deque_base<zmq::blob_t, std::allocator<zmq::blob_t>>::_Deque_impl" = type { %"struct.std::_Deque_base<zmq::blob_t, std::allocator<zmq::blob_t>>::_Deque_impl_data" }
%"struct.std::_Deque_base<zmq::blob_t, std::allocator<zmq::blob_t>>::_Deque_impl_data" = type { ptr, i64, %"struct.std::_Deque_iterator.58", %"struct.std::_Deque_iterator.58" }
%"struct.std::_Deque_iterator.58" = type { ptr, ptr, ptr, ptr }
%"class.std::deque.59" = type { %"class.std::_Deque_base.60" }
%"class.std::_Deque_base.60" = type { %"struct.std::_Deque_base<zmq::metadata_t *, std::allocator<zmq::metadata_t *>>::_Deque_impl" }
%"struct.std::_Deque_base<zmq::metadata_t *, std::allocator<zmq::metadata_t *>>::_Deque_impl" = type { %"struct.std::_Deque_base<zmq::metadata_t *, std::allocator<zmq::metadata_t *>>::_Deque_impl_data" }
%"struct.std::_Deque_base<zmq::metadata_t *, std::allocator<zmq::metadata_t *>>::_Deque_impl_data" = type { ptr, i64, %"struct.std::_Deque_iterator.64", %"struct.std::_Deque_iterator.64" }
%"struct.std::_Deque_iterator.64" = type { ptr, ptr, ptr, ptr }
%"class.std::deque.65" = type { %"class.std::_Deque_base.66" }
%"class.std::_Deque_base.66" = type { %"struct.std::_Deque_base<unsigned char, std::allocator<unsigned char>>::_Deque_impl" }
%"struct.std::_Deque_base<unsigned char, std::allocator<unsigned char>>::_Deque_impl" = type { %"struct.std::_Deque_base<unsigned char, std::allocator<unsigned char>>::_Deque_impl_data" }
%"struct.std::_Deque_base<unsigned char, std::allocator<unsigned char>>::_Deque_impl_data" = type { ptr, i64, %"struct.std::_Deque_iterator.67", %"struct.std::_Deque_iterator.67" }
%"struct.std::_Deque_iterator.67" = type { ptr, ptr, ptr, ptr }

@stderr = external global ptr, align 8
@.str = private unnamed_addr constant [30 x i8] c"Assertion failed: %s (%s:%d)\0A\00", align 1
@.str.1 = private unnamed_addr constant [6 x i8] c"pipe_\00", align 1
@.str.2 = private unnamed_addr constant [104 x i8] c"generated/home/dtcxzyw/WorkSpace/Projects/compilers/llvm-opt-benchmark/bench/libzmq/libzmq/src/xpub.cpp\00", align 1
@.str.3 = private unnamed_addr constant [12 x i8] c"%s (%s:%d)\0A\00", align 1
@.str.4 = private unnamed_addr constant [3 x i8] c"ok\00", align 1

; Function Attrs: mustprogress uwtable
define void @_ZN3zmq6xpub_t12xattach_pipeEPNS_6pipe_tEbb(ptr noundef nonnull align 8 dereferenceable(2360) %0, ptr noundef %1, i1 noundef zeroext %2, i1 noundef zeroext %3) unnamed_addr #0 align 2 {
  %5 = alloca ptr, align 8
  %6 = alloca ptr, align 8
  %7 = alloca i8, align 1
  %8 = alloca i8, align 1
  %9 = alloca %"class.zmq::msg_t", align 8
  %10 = alloca i32, align 4
  %11 = alloca ptr, align 8
  %12 = alloca i8, align 1
  store ptr %0, ptr %5, align 8, !tbaa !3
  store ptr %1, ptr %6, align 8, !tbaa !149
  %13 = zext i1 %2 to i8
  store i8 %13, ptr %7, align 1, !tbaa !150
  %14 = zext i1 %3 to i8
  store i8 %14, ptr %8, align 1, !tbaa !150
  %15 = load ptr, ptr %5, align 8
  br label %16

16:                                               ; preds = %4
  %17 = load ptr, ptr %6, align 8, !tbaa !149
  %18 = icmp ne ptr %17, null
  %19 = xor i1 %18, true
  %20 = zext i1 %19 to i64
  %21 = call i64 @llvm.expect.i64(i64 %20, i64 0)
  %22 = icmp ne i64 %21, 0
  br i1 %22, label %23, label %28

23:                                               ; preds = %16
  %24 = load ptr, ptr @stderr, align 8, !tbaa !151
  %25 = call i32 (ptr, ptr, ...) @fprintf(ptr noundef %24, ptr noundef @.str, ptr noundef @.str.1, ptr noundef @.str.2, i32 noundef 48) #21
  %26 = load ptr, ptr @stderr, align 8, !tbaa !151
  %27 = call i32 @fflush(ptr noundef %26)
  call void @_ZN3zmq9zmq_abortEPKc(ptr noundef @.str.1)
  br label %28

28:                                               ; preds = %23, %16
  br label %29

29:                                               ; preds = %28
  %30 = getelementptr inbounds nuw %"class.zmq::xpub_t", ptr %15, i32 0, i32 3
  %31 = load ptr, ptr %6, align 8, !tbaa !149
  call void @_ZN3zmq6dist_t6attachEPNS_6pipe_tE(ptr noundef nonnull align 8 dereferenceable(49) %30, ptr noundef %31)
  %32 = load i8, ptr %7, align 1, !tbaa !150, !range !153, !noundef !154
  %33 = trunc i8 %32 to i1
  br i1 %33, label %34, label %38

34:                                               ; preds = %29
  %35 = getelementptr inbounds nuw %"class.zmq::xpub_t", ptr %15, i32 0, i32 1
  %36 = load ptr, ptr %6, align 8, !tbaa !149
  %37 = call noundef zeroext i1 @_ZN3zmq15generic_mtrie_tINS_6pipe_tEE3addEPKhmPS1_(ptr noundef nonnull align 8 dereferenceable(32) %35, ptr noundef null, i64 noundef 0, ptr noundef %36)
  br label %38

38:                                               ; preds = %34, %29
  %39 = getelementptr inbounds nuw %"class.zmq::xpub_t", ptr %15, i32 0, i32 15
  %40 = call noundef i64 @_ZNK3zmq5msg_t4sizeEv(ptr noundef nonnull align 8 dereferenceable(64) %39)
  %41 = icmp ugt i64 %40, 0
  br i1 %41, label %42, label %85

42:                                               ; preds = %38
  call void @llvm.lifetime.start.p0(i64 64, ptr %9) #21
  %43 = call noundef i32 @_ZN3zmq5msg_t4initEv(ptr noundef nonnull align 8 dereferenceable(64) %9)
  call void @llvm.lifetime.start.p0(i64 4, ptr %10) #21
  %44 = getelementptr inbounds nuw %"class.zmq::xpub_t", ptr %15, i32 0, i32 15
  %45 = call noundef i32 @_ZN3zmq5msg_t4copyERS0_(ptr noundef nonnull align 8 dereferenceable(64) %9, ptr noundef nonnull align 8 dereferenceable(64) %44)
  store i32 %45, ptr %10, align 4, !tbaa !10
  br label %46

46:                                               ; preds = %42
  %47 = load i32, ptr %10, align 4, !tbaa !10
  %48 = icmp eq i32 %47, 0
  %49 = xor i1 %48, true
  %50 = zext i1 %49 to i64
  %51 = call i64 @llvm.expect.i64(i64 %50, i64 0)
  %52 = icmp ne i64 %51, 0
  br i1 %52, label %53, label %63

53:                                               ; preds = %46
  call void @llvm.lifetime.start.p0(i64 8, ptr %11) #21
  %54 = call ptr @__errno_location() #24
  %55 = load i32, ptr %54, align 4, !tbaa !10
  %56 = call ptr @strerror(i32 noundef %55) #21
  store ptr %56, ptr %11, align 8, !tbaa !155
  %57 = load ptr, ptr @stderr, align 8, !tbaa !151
  %58 = load ptr, ptr %11, align 8, !tbaa !155
  %59 = call i32 (ptr, ptr, ...) @fprintf(ptr noundef %57, ptr noundef @.str.3, ptr noundef %58, ptr noundef @.str.2, i32 noundef 61) #21
  %60 = load ptr, ptr @stderr, align 8, !tbaa !151
  %61 = call i32 @fflush(ptr noundef %60)
  %62 = load ptr, ptr %11, align 8, !tbaa !155
  call void @_ZN3zmq9zmq_abortEPKc(ptr noundef %62)
  call void @llvm.lifetime.end.p0(i64 8, ptr %11) #21
  br label %63

63:                                               ; preds = %53, %46
  br label %64

64:                                               ; preds = %63
  br label %65

65:                                               ; preds = %64
  call void @llvm.lifetime.start.p0(i64 1, ptr %12) #21
  %66 = load ptr, ptr %6, align 8, !tbaa !149
  %67 = call noundef zeroext i1 @_ZN3zmq6pipe_t5writeEPKNS_5msg_tE(ptr noundef nonnull align 8 dereferenceable(328) %66, ptr noundef %9)
  %68 = zext i1 %67 to i8
  store i8 %68, ptr %12, align 1, !tbaa !150
  br label %69

69:                                               ; preds = %65
  %70 = load i8, ptr %12, align 1, !tbaa !150, !range !153, !noundef !154
  %71 = trunc i8 %70 to i1
  %72 = xor i1 %71, true
  %73 = zext i1 %72 to i64
  %74 = call i64 @llvm.expect.i64(i64 %73, i64 0)
  %75 = icmp ne i64 %74, 0
  br i1 %75, label %76, label %81

76:                                               ; preds = %69
  %77 = load ptr, ptr @stderr, align 8, !tbaa !151
  %78 = call i32 (ptr, ptr, ...) @fprintf(ptr noundef %77, ptr noundef @.str, ptr noundef @.str.4, ptr noundef @.str.2, i32 noundef 63) #21
  %79 = load ptr, ptr @stderr, align 8, !tbaa !151
  %80 = call i32 @fflush(ptr noundef %79)
  call void @_ZN3zmq9zmq_abortEPKc(ptr noundef @.str.4)
  br label %81

81:                                               ; preds = %76, %69
  br label %82

82:                                               ; preds = %81
  br label %83

83:                                               ; preds = %82
  %84 = load ptr, ptr %6, align 8, !tbaa !149
  call void @_ZN3zmq6pipe_t5flushEv(ptr noundef nonnull align 8 dereferenceable(328) %84)
  call void @llvm.lifetime.end.p0(i64 1, ptr %12) #21
  call void @llvm.lifetime.end.p0(i64 4, ptr %10) #21
  call void @llvm.lifetime.end.p0(i64 64, ptr %9) #21
  br label %85

85:                                               ; preds = %83, %38
  %86 = load ptr, ptr %6, align 8, !tbaa !149
  call void @_ZN3zmq6xpub_t15xread_activatedEPNS_6pipe_tE(ptr noundef nonnull align 8 dereferenceable(2360) %15, ptr noundef %86)
  ret void
}