; Function Attrs: mustprogress uwtable
define void @_ZN3zmq6xpub_t12xattach_pipeEPNS_6pipe_tEbb(ptr noundef nonnull align 8 dereferenceable(2360) %0, ptr noundef %1, i1 noundef zeroext %2, i1 zeroext %3) unnamed_addr #0 align 2 {
  %5 = alloca %"class.zmq::msg_t", align 8
  %.not = icmp eq ptr %1, null
  br i1 %.not, label %6, label %11, !prof !165

6:                                                ; preds = %4
  %7 = load ptr, ptr @stderr, align 8, !tbaa !166
  %8 = tail call i32 (ptr, ptr, ...) @fprintf(ptr noundef %7, ptr noundef nonnull @.str, ptr noundef nonnull @.str.1, ptr noundef nonnull @.str.2, i32 noundef 48) #27
  %9 = load ptr, ptr @stderr, align 8, !tbaa !166
  %10 = tail call i32 @fflush(ptr noundef %9)
  tail call void @_ZN3zmq9zmq_abortEPKc(ptr noundef nonnull @.str.1)
  br label %11

11:                                               ; preds = %4, %6
  %12 = getelementptr inbounds nuw i8, ptr %0, i64 1896
  tail call void @_ZN3zmq6dist_t6attachEPNS_6pipe_tE(ptr noundef nonnull align 8 dereferenceable(49) %12, ptr noundef %1)
  br i1 %2, label %13, label %16

13:                                               ; preds = %11
  %14 = getelementptr inbounds nuw i8, ptr %0, i64 1832
  %15 = tail call noundef zeroext i1 @_ZN3zmq15generic_mtrie_tINS_6pipe_tEE3addEPKhmPS1_(ptr noundef nonnull align 8 dereferenceable(32) %14, ptr noundef null, i64 noundef 0, ptr noundef %1)
  br label %16

16:                                               ; preds = %13, %11
  %17 = getelementptr inbounds nuw i8, ptr %0, i64 2056
  %18 = tail call noundef i64 @_ZNK3zmq5msg_t4sizeEv(ptr noundef nonnull align 8 dereferenceable(64) %17)
  %.not11 = icmp eq i64 %18, 0
  br i1 %.not11, label %38, label %19

19:                                               ; preds = %16
  call void @llvm.lifetime.start.p0(i64 64, ptr nonnull %5) #24
  %20 = call noundef i32 @_ZN3zmq5msg_t4initEv(ptr noundef nonnull align 8 dereferenceable(64) %5)
  %21 = call noundef i32 @_ZN3zmq5msg_t4copyERS0_(ptr noundef nonnull align 8 dereferenceable(64) %5, ptr noundef nonnull align 8 dereferenceable(64) %17)
  %.not12 = icmp eq i32 %21, 0
  br i1 %.not12, label %30, label %22, !prof !168

22:                                               ; preds = %19
  %23 = tail call ptr @__errno_location() #28
  %24 = load i32, ptr %23, align 4, !tbaa !169
  %25 = call ptr @strerror(i32 noundef %24) #24
  %26 = load ptr, ptr @stderr, align 8, !tbaa !166
  %27 = call i32 (ptr, ptr, ...) @fprintf(ptr noundef %26, ptr noundef nonnull @.str.3, ptr noundef %25, ptr noundef nonnull @.str.2, i32 noundef 61) #27
  %28 = load ptr, ptr @stderr, align 8, !tbaa !166
  %29 = call i32 @fflush(ptr noundef %28)
  call void @_ZN3zmq9zmq_abortEPKc(ptr noundef %25)
  br label %30

30:                                               ; preds = %22, %19
  %31 = call noundef zeroext i1 @_ZN3zmq6pipe_t5writeEPKNS_5msg_tE(ptr noundef nonnull align 8 dereferenceable(328) %1, ptr noundef nonnull %5)
  br i1 %31, label %37, label %32, !prof !168

32:                                               ; preds = %30
  %33 = load ptr, ptr @stderr, align 8, !tbaa !166
  %34 = call i32 (ptr, ptr, ...) @fprintf(ptr noundef %33, ptr noundef nonnull @.str, ptr noundef nonnull @.str.4, ptr noundef nonnull @.str.2, i32 noundef 63) #27
  %35 = load ptr, ptr @stderr, align 8, !tbaa !166
  %36 = call i32 @fflush(ptr noundef %35)
  call void @_ZN3zmq9zmq_abortEPKc(ptr noundef nonnull @.str.4)
  br label %37

37:                                               ; preds = %32, %30
  call void @_ZN3zmq6pipe_t5flushEv(ptr noundef nonnull align 8 dereferenceable(328) %1)
  call void @llvm.lifetime.end.p0(i64 64, ptr nonnull %5) #24
  br label %38

38:                                               ; preds = %37, %16
  call void @_ZN3zmq6xpub_t15xread_activatedEPNS_6pipe_tE(ptr noundef nonnull align 8 dereferenceable(2360) %0, ptr noundef %1)
  ret void
}